; Function Attrs: mustprogress uwtable
define hidden void @_ZN2dd11bdd_manager9mk_concatERKNS_4bddvES3_(ptr noalias sret(%"class.dd::bddv") align 8 %agg.result, ptr nocapture noundef nonnull readnone align 8 dereferenceable(728) %this, ptr nocapture noundef nonnull readonly align 8 dereferenceable(16) %a, ptr nocapture noundef nonnull readonly align 8 dereferenceable(16) %b) local_unnamed_addr #3 align 2 personality ptr @__gxx_personality_v0 {
entry:
  store ptr null, ptr %agg.result, align 8
  %0 = load ptr, ptr %a, align 8
  %tobool.not.i.i = icmp eq ptr %0, null
  br i1 %tobool.not.i.i, label %_ZN2dd4bddvC2ERKS0_.exit, label %_ZNK6vectorIN2dd3bddELb1EjE8capacityEv.exit.i.i.i

_ZNK6vectorIN2dd3bddELb1EjE8capacityEv.exit.i.i.i: ; preds = %entry
  %arrayidx.i11.i.i.i = getelementptr inbounds i8, ptr %0, i64 -8
  %1 = load <2 x i32>, ptr %arrayidx.i11.i.i.i, align 4
  %2 = extractelement <2 x i32> %1, i64 0
  %conv.i.i.i = zext i32 %2 to i64
  %mul.i.i.i = shl nuw nsw i64 %conv.i.i.i, 4
  %add.i.i.i = or disjoint i64 %mul.i.i.i, 8
  %call3.i.i.i = tail call noalias noundef ptr @_ZN6memory8allocateEm(i64 noundef %add.i.i.i)
  store <2 x i32> %1, ptr %call3.i.i.i, align 4
  %incdec.ptr4.i.i.i = getelementptr inbounds i8, ptr %call3.i.i.i, i64 8
  store ptr %incdec.ptr4.i.i.i, ptr %agg.result, align 8
  %3 = load ptr, ptr %a, align 8
  %cmp.i.i.i.i.i = icmp eq ptr %3, null
  br i1 %cmp.i.i.i.i.i, label %_ZN6vectorIN2dd3bddELb1EjE9copy_coreERKS2_.exit.i.i, label %if.end.i.i.i.i.i

if.end.i.i.i.i.i:                                 ; preds = %_ZNK6vectorIN2dd3bddELb1EjE8capacityEv.exit.i.i.i
  %arrayidx.i.i.i.i.i = getelementptr inbounds i8, ptr %3, i64 -4
  %4 = load i32, ptr %arrayidx.i.i.i.i.i, align 4
  %5 = zext i32 %4 to i64
  br label %_ZN6vectorIN2dd3bddELb1EjE9copy_coreERKS2_.exit.i.i

_ZN6vectorIN2dd3bddELb1EjE9copy_coreERKS2_.exit.i.i: ; preds = %if.end.i.i.i.i.i, %_ZNK6vectorIN2dd3bddELb1EjE8capacityEv.exit.i.i.i
  %retval.0.i.i.i.i.i = phi i64 [ %5, %if.end.i.i.i.i.i ], [ 0, %_ZNK6vectorIN2dd3bddELb1EjE8capacityEv.exit.i.i.i ]
  %add.ptr.i.i.i.i = getelementptr inbounds %"class.dd::bdd", ptr %3, i64 %retval.0.i.i.i.i.i
  %call.i.i.i.i.i = tail call noundef ptr @_ZSt16__do_uninit_copyIPKN2dd3bddEPS1_ET0_T_S6_S5_(ptr noundef %3, ptr noundef %add.ptr.i.i.i.i, ptr noundef nonnull %incdec.ptr4.i.i.i)
  br label %_ZN2dd4bddvC2ERKS0_.exit

_ZN2dd4bddvC2ERKS0_.exit:                         ; preds = %entry, %_ZN6vectorIN2dd3bddELb1EjE9copy_coreERKS2_.exit.i.i
  %m.i = getelementptr inbounds i8, ptr %agg.result, i64 8
  %m3.i = getelementptr inbounds i8, ptr %a, i64 8
  %6 = load ptr, ptr %m3.i, align 8
  store ptr %6, ptr %m.i, align 8
  br label %for.cond.i

for.cond.i:                                       ; preds = %call3.i.noexc, %_ZN2dd4bddvC2ERKS0_.exit
  %indvars.iv.i = phi i64 [ %indvars.iv.next.i, %call3.i.noexc ], [ 0, %_ZN2dd4bddvC2ERKS0_.exit ]
  %7 = load ptr, ptr %b, align 8
  %cmp.i.i = icmp eq ptr %7, null
  br i1 %cmp.i.i, label %_ZNK6vectorIN2dd3bddELb1EjE4sizeEv.exit.i, label %if.end.i.i

if.end.i.i:                                       ; preds = %for.cond.i
  %arrayidx.i.i = getelementptr inbounds i8, ptr %7, i64 -4
  %8 = load i32, ptr %arrayidx.i.i, align 4
  br label %_ZNK6vectorIN2dd3bddELb1EjE4sizeEv.exit.i

_ZNK6vectorIN2dd3bddELb1EjE4sizeEv.exit.i:        ; preds = %if.end.i.i, %for.cond.i
  %retval.0.i.i = phi i32 [ %8, %if.end.i.i ], [ 0, %for.cond.i ]
  %9 = zext i32 %retval.0.i.i to i64
  %cmp.i = icmp ult i64 %indvars.iv.i, %9
  br i1 %cmp.i, label %for.body.i, label %nrvo.skipdtor

for.body.i:                                       ; preds = %_ZNK6vectorIN2dd3bddELb1EjE4sizeEv.exit.i
  %arrayidx.i4.i = getelementptr inbounds %"class.dd::bdd", ptr %7, i64 %indvars.iv.i
  %call3.i1 = invoke noundef nonnull align 8 dereferenceable(8) ptr @_ZN6vectorIN2dd3bddELb1EjE9push_backERKS1_(ptr noundef nonnull align 8 dereferenceable(8) %agg.result, ptr noundef nonnull align 8 dereferenceable(16) %arrayidx.i4.i)
          to label %call3.i.noexc unwind label %lpad

call3.i.noexc:                                    ; preds = %for.body.i
  %indvars.iv.next.i = add nuw nsw i64 %indvars.iv.i, 1
  br label %for.cond.i, !llvm.loop !387

lpad:                                             ; preds = %for.body.i
  %10 = landingpad { ptr, i32 }
          cleanup
  tail call void @_ZN2dd4bddvD2Ev(ptr noundef nonnull align 8 dereferenceable(16) %agg.result) #24
  resume { ptr, i32 } %10

nrvo.skipdtor:                                    ; preds = %_ZNK6vectorIN2dd3bddELb1EjE4sizeEv.exit.i
  ret void
}